; Function Attrs: nounwind uwtable
define dso_local ptr @reftable_calloc(i64 noundef %0, i64 noundef %1) local_unnamed_addr #0 {
  %.not = icmp eq i64 %0, 0
  br i1 %.not, label %4, label %3

3:                                                ; preds = %2
  %mul = tail call { i64, i1 } @llvm.umul.with.overflow.i64(i64 %0, i64 %1)
  %mul.ov = extractvalue { i64, i1 } %mul, 1
  br i1 %mul.ov, label %reftable_malloc.exit.thread, label %4

4:                                                ; preds = %3, %2
  %5 = mul i64 %1, %0
  %.not.i = icmp eq i64 %5, 0
  br i1 %.not.i, label %reftable_malloc.exit.thread, label %6

6:                                                ; preds = %4
  %7 = load ptr, ptr @reftable_malloc_ptr, align 8, !tbaa !4
  %.not5.i = icmp eq ptr %7, null
  br i1 %.not5.i, label %10, label %8

8:                                                ; preds = %6
  %9 = tail call ptr %7(i64 noundef %5) #20
  br label %reftable_malloc.exit

10:                                               ; preds = %6
  %11 = tail call noalias ptr @malloc(i64 noundef %5) #21
  br label %reftable_malloc.exit

reftable_malloc.exit:                             ; preds = %8, %10
  %.0.i = phi ptr [ %9, %8 ], [ %11, %10 ]
  %.not12 = icmp eq ptr %.0.i, null
  br i1 %.not12, label %reftable_malloc.exit.thread, label %12

12:                                               ; preds = %reftable_malloc.exit
  tail call void @llvm.memset.p0.i64(ptr nonnull align 1 %.0.i, i8 0, i64 %5, i1 false)
  br label %reftable_malloc.exit.thread

reftable_malloc.exit.thread:                      ; preds = %4, %reftable_malloc.exit, %3, %12
  %.0 = phi ptr [ %.0.i, %12 ], [ null, %3 ], [ null, %reftable_malloc.exit ], [ null, %4 ]
  ret ptr %.0
}